; ModuleID = '58/1133.c'
source_filename = "58/1133.c"
target datalayout = "e-m:e-p270:32:32-p271:32:32-p272:64:64-i64:64-f80:128-n8:16:32:64-S128"
target triple = "x86_64-pc-linux-gnu"

@.str = private unnamed_addr constant [3 x i8] c"%d\00", align 1
@.str.1 = private unnamed_addr constant [4 x i8] c"%d\0A\00", align 1

; Function Attrs: noinline nounwind uwtable
define dso_local i32 @isLegal(i8* %0) #0 {
  %2 = alloca i32, align 4
  %3 = alloca i8*, align 8
  store i8* %0, i8** %3, align 8
  %4 = load i8*, i8** %3, align 8
  %5 = load i8, i8* %4, align 1
  %6 = sext i8 %5 to i32
  %7 = call i32 @isalpha(i32 %6) #3
  %8 = icmp ne i32 %7, 0
  br i1 %8, label %15, label %9

9:                                                ; preds = %1
  %10 = load i8*, i8** %3, align 8
  %11 = load i8, i8* %10, align 1
  %12 = sext i8 %11 to i32
  %13 = icmp ne i32 %12, 95
  br i1 %13, label %14, label %15

14:                                               ; preds = %9
  store i32 0, i32* %2, align 4
  br label %45

15:                                               ; preds = %9, %1
  %16 = load i8*, i8** %3, align 8
  %17 = getelementptr inbounds i8, i8* %16, i32 1
  store i8* %17, i8** %3, align 8
  br label %18

18:                                               ; preds = %41, %15
  %19 = load i8*, i8** %3, align 8
  %20 = load i8, i8* %19, align 1
  %21 = icmp ne i8 %20, 0
  br i1 %21, label %22, label %44

22:                                               ; preds = %18
  %23 = load i8*, i8** %3, align 8
  %24 = load i8, i8* %23, align 1
  %25 = sext i8 %24 to i32
  %26 = call i32 @isalpha(i32 %25) #3
  %27 = icmp ne i32 %26, 0
  br i1 %27, label %40, label %28

28:                                               ; preds = %22
  %29 = load i8*, i8** %3, align 8
  %30 = load i8, i8* %29, align 1
  %31 = sext i8 %30 to i32
  %32 = call i32 @isdigit(i32 %31) #3
  %33 = icmp ne i32 %32, 0
  br i1 %33, label %40, label %34

34:                                               ; preds = %28
  %35 = load i8*, i8** %3, align 8
  %36 = load i8, i8* %35, align 1
  %37 = sext i8 %36 to i32
  %38 = icmp ne i32 %37, 95
  br i1 %38, label %39, label %40

39:                                               ; preds = %34
  store i32 0, i32* %2, align 4
  br label %45

40:                                               ; preds = %34, %28, %22
  br label %41

41:                                               ; preds = %40
  %42 = load i8*, i8** %3, align 8
  %43 = getelementptr inbounds i8, i8* %42, i32 1
  store i8* %43, i8** %3, align 8
  br label %18

44:                                               ; preds = %18
  store i32 1, i32* %2, align 4
  br label %45

45:                                               ; preds = %44, %39, %14
  %46 = load i32, i32* %2, align 4
  ret i32 %46
}

; Function Attrs: nounwind readonly
declare dso_local i32 @isalpha(i32) #1

; Function Attrs: nounwind readonly
declare dso_local i32 @isdigit(i32) #1

; Function Attrs: noinline nounwind uwtable
define dso_local i32 @main() #0 {
  %1 = alloca i32, align 4
  %2 = alloca [100 x i8], align 16
  %3 = alloca i32, align 4
  store i32 0, i32* %1, align 4
  %4 = call i32 (i8*, ...) @__isoc99_scanf(i8* getelementptr inbounds ([3 x i8], [3 x i8]* @.str, i64 0, i64 0), i32* %3)
  %5 = getelementptr inbounds [100 x i8], [100 x i8]* %2, i64 0, i64 0
  %6 = call i32 (i8*, ...) bitcast (i32 (...)* @gets to i32 (i8*, ...)*)(i8* %5)
  br label %7

7:                                                ; preds = %11, %0
  %8 = load i32, i32* %3, align 4
  %9 = add nsw i32 %8, -1
  store i32 %9, i32* %3, align 4
  %10 = icmp ne i32 %8, 0
  br i1 %10, label %11, label %17

11:                                               ; preds = %7
  %12 = getelementptr inbounds [100 x i8], [100 x i8]* %2, i64 0, i64 0
  %13 = call i32 (i8*, ...) bitcast (i32 (...)* @gets to i32 (i8*, ...)*)(i8* %12)
  %14 = getelementptr inbounds [100 x i8], [100 x i8]* %2, i64 0, i64 0
  %15 = call i32 @isLegal(i8* %14)
  %16 = call i32 (i8*, ...) @printf(i8* getelementptr inbounds ([4 x i8], [4 x i8]* @.str.1, i64 0, i64 0), i32 %15)
  br label %7

17:                                               ; preds = %7
  ret i32 0
}

declare dso_local i32 @__isoc99_scanf(i8*, ...) #2

declare dso_local i32 @gets(...) #2

declare dso_local i32 @printf(i8*, ...) #2


!llvm.module.flags = !{!0}
!llvm.ident = !{!1}

!0 = !{i32 1, !"wchar_size", i32 4}
!1 = !{!"clang version 10.0.0-4ubuntu1 "}
